; Function Attrs: nounwind uwtable
define range(i32 -1, 1) i32 @H5P__class_set(ptr noundef readonly captures(none) %0, ptr noundef %1, ptr noundef readonly captures(none) %2) local_unnamed_addr #0 {
  %4 = load i8, ptr @H5P_init_g, align 1, !tbaa !3, !range !7, !noundef !8
  %5 = trunc nuw i8 %4 to i1
  %6 = load i8, ptr @H5_libterm_g, align 1, !range !7
  %7 = trunc nuw i8 %6 to i1
  %8 = xor i1 %7, true
  %9 = select i1 %5, i1 true, i1 %8
  br i1 %9, label %10, label %30, !prof !9

10:                                               ; preds = %3
  %11 = getelementptr inbounds nuw i8, ptr %0, i64 56
  %12 = load ptr, ptr %11, align 8, !tbaa !47
  %13 = tail call ptr @H5SL_search(ptr noundef %12, ptr noundef %1) #14
  %14 = icmp eq ptr %13, null
  br i1 %14, label %15, label %19

15:                                               ; preds = %10
  %16 = load i64, ptr @H5E_PLIST_g, align 8, !tbaa !10
  %17 = load i64, ptr @H5E_NOTFOUND_g, align 8, !tbaa !10
  %18 = tail call i32 (ptr, ptr, i32, i64, i64, ptr, ...) @H5E_printf_stack(ptr noundef nonnull @.str.7, ptr noundef nonnull @__func__.H5P__class_set, i32 noundef 3352, i64 noundef %16, i64 noundef %17, ptr noundef nonnull @.str.48) #14
  br label %30

19:                                               ; preds = %10
  %20 = getelementptr inbounds nuw i8, ptr %13, i64 8
  %21 = load i64, ptr %20, align 8, !tbaa !73
  %22 = icmp eq i64 %21, 0
  br i1 %22, label %23, label %27

23:                                               ; preds = %19
  %24 = load i64, ptr @H5E_PLIST_g, align 8, !tbaa !10
  %25 = load i64, ptr @H5E_BADVALUE_g, align 8, !tbaa !10
  %26 = tail call i32 (ptr, ptr, i32, i64, i64, ptr, ...) @H5E_printf_stack(ptr noundef nonnull @.str.7, ptr noundef nonnull @__func__.H5P__class_set, i32 noundef 3356, i64 noundef %24, i64 noundef %25, ptr noundef nonnull @.str.49) #14
  br label %30

27:                                               ; preds = %19
  %28 = getelementptr inbounds nuw i8, ptr %13, i64 16
  %29 = load ptr, ptr %28, align 8, !tbaa !72
  tail call void @llvm.memcpy.p0.p0.i64(ptr align 1 %29, ptr align 1 %2, i64 %21, i1 false)
  br label %30

30:                                               ; preds = %15, %23, %27, %3
  %.0 = phi i32 [ -1, %15 ], [ -1, %23 ], [ 0, %27 ], [ 0, %3 ]
  ret i32 %.0
}